; Function Attrs: mustprogress uwtable
define void @vzone_setTZURL_77(ptr noundef %0, ptr noundef %1, i32 noundef %2) local_unnamed_addr #0 personality ptr @__gxx_personality_v0 {
  %4 = alloca %"class.icu_77::UnicodeString", align 8
  %5 = alloca %"class.icu_77::ConstChar16Ptr", align 8
  call void @llvm.lifetime.start.p0(i64 64, ptr nonnull %4) #7
  %6 = icmp eq i32 %2, -1
  %7 = zext i1 %6 to i8
  store ptr %1, ptr %5, align 8, !tbaa !3
  invoke void @_ZN6icu_7713UnicodeStringC1EaNS_14ConstChar16PtrEi(ptr noundef nonnull align 8 dereferenceable(64) %4, i8 noundef signext %7, ptr noundef nonnull %5, i32 noundef %2)
          to label %8 unwind label %11

8:                                                ; preds = %3
  %9 = load ptr, ptr %5, align 8, !tbaa !3
  call void asm sideeffect "", "rm,~{memory},~{dirflag},~{fpsr},~{flags}"(ptr %9) #7, !srcloc !9
  invoke void @_ZN6icu_779VTimeZone8setTZURLERKNS_13UnicodeStringE(ptr noundef nonnull align 8 dereferenceable(288) %0, ptr noundef nonnull align 8 dereferenceable(64) %4)
          to label %10 unwind label %14

10:                                               ; preds = %8
  call void @_ZN6icu_7713UnicodeStringD1Ev(ptr noundef nonnull align 8 dereferenceable(64) %4) #7
  call void @llvm.lifetime.end.p0(i64 64, ptr nonnull %4) #7
  ret void

11:                                               ; preds = %3
  %12 = landingpad { ptr, i32 }
          cleanup
  %13 = load ptr, ptr %5, align 8, !tbaa !3
  call void asm sideeffect "", "rm,~{memory},~{dirflag},~{fpsr},~{flags}"(ptr %13) #7, !srcloc !9
  br label %16

14:                                               ; preds = %8
  %15 = landingpad { ptr, i32 }
          cleanup
  call void @_ZN6icu_7713UnicodeStringD1Ev(ptr noundef nonnull align 8 dereferenceable(64) %4) #7
  br label %16

16:                                               ; preds = %14, %11
  %.pn = phi { ptr, i32 } [ %15, %14 ], [ %12, %11 ]
  call void @llvm.lifetime.end.p0(i64 64, ptr nonnull %4) #7
  resume { ptr, i32 } %.pn
}